target datalayout = "e-m:e-p270:32:32-p271:32:32-p272:64:64-i64:64-i128:128-f80:128-n8:16:32:64-S128"
target triple = "x86_64-pc-linux-gnu"

@hf_mac_nr_control_me_phr_entry = internal global i32 0, align 4
@hf_mac_nr_control_me_phr_p = internal global i32 0, align 4
@hf_mac_nr_control_me_phr_v = internal global i32 0, align 4
@hf_mac_nr_control_me_phr_reserved_2 = internal global i32 0, align 4
@ett_mac_nr_me_phr_entry = internal global i32 0, align 4

; Function Attrs: nounwind uwtable
define internal ptr @dissect_me_phr_ph(ptr noundef %0, ptr noundef %1, ptr noundef %2, i32 noundef %3, i32 noundef %4, ptr noundef %5, ptr noundef %6) #0 {
  %8 = alloca ptr, align 8
  %9 = alloca ptr, align 8
  %10 = alloca ptr, align 8
  %11 = alloca i32, align 4
  %12 = alloca i32, align 4
  %13 = alloca ptr, align 8
  %14 = alloca ptr, align 8
  %15 = alloca ptr, align 8
  %16 = alloca ptr, align 8
  %17 = alloca i32, align 4
  store ptr %0, ptr %8, align 8
  store ptr %1, ptr %9, align 8
  store ptr %2, ptr %10, align 8
  store i32 %3, ptr %11, align 4
  store i32 %4, ptr %12, align 4
  store ptr %5, ptr %13, align 8
  store ptr %6, ptr %14, align 8
  %18 = load ptr, ptr %10, align 8
  %19 = load i32, ptr @hf_mac_nr_control_me_phr_entry, align 4
  %20 = load ptr, ptr %8, align 8
  %21 = load ptr, ptr %14, align 8
  %22 = load i32, ptr %21, align 4
  %23 = call ptr @proto_tree_add_item(ptr noundef %18, i32 noundef %19, ptr noundef %20, i32 noundef %22, i32 noundef 0, i32 noundef 0)
  store ptr %23, ptr %15, align 8
  %24 = load ptr, ptr %15, align 8
  %25 = load i32, ptr @ett_mac_nr_me_phr_entry, align 4
  %26 = call ptr @proto_item_add_subtree(ptr noundef %24, i32 noundef %25)
  store ptr %26, ptr %16, align 8
  %27 = load ptr, ptr %16, align 8
  %28 = load i32, ptr @hf_mac_nr_control_me_phr_p, align 4
  %29 = load ptr, ptr %8, align 8
  %30 = load ptr, ptr %14, align 8
  %31 = load i32, ptr %30, align 4
  %32 = call ptr @proto_tree_add_item(ptr noundef %27, i32 noundef %28, ptr noundef %29, i32 noundef %31, i32 noundef 1, i32 noundef 0)
  %33 = load ptr, ptr %16, align 8
  %34 = load i32, ptr @hf_mac_nr_control_me_phr_v, align 4
  %35 = load ptr, ptr %8, align 8
  %36 = load ptr, ptr %14, align 8
  %37 = load i32, ptr %36, align 4
  %38 = call ptr @proto_tree_add_item_ret_boolean(ptr noundef %33, i32 noundef %34, ptr noundef %35, i32 noundef %37, i32 noundef 1, i32 noundef 0, ptr noundef %17)
  %39 = load ptr, ptr %16, align 8
  %40 = load i32, ptr %11, align 4
  %41 = load ptr, ptr %8, align 8
  %42 = load ptr, ptr %14, align 8
  %43 = load i32, ptr %42, align 4
  %44 = load ptr, ptr %13, align 8
  %45 = call ptr @proto_tree_add_item_ret_uint(ptr noundef %39, i32 noundef %40, ptr noundef %41, i32 noundef %43, i32 noundef 1, i32 noundef 0, ptr noundef %44)
  %46 = load ptr, ptr %14, align 8
  %47 = load i32, ptr %46, align 4
  %48 = add i32 %47, 1
  store i32 %48, ptr %46, align 4
  %49 = load i32, ptr %17, align 4
  %50 = icmp ne i32 %49, 0
  br i1 %50, label %67, label %51

51:                                               ; preds = %7
  %52 = load ptr, ptr %16, align 8
  %53 = load i32, ptr @hf_mac_nr_control_me_phr_reserved_2, align 4
  %54 = load ptr, ptr %8, align 8
  %55 = load ptr, ptr %14, align 8
  %56 = load i32, ptr %55, align 4
  %57 = call ptr @proto_tree_add_item(ptr noundef %52, i32 noundef %53, ptr noundef %54, i32 noundef %56, i32 noundef 1, i32 noundef 0)
  %58 = load ptr, ptr %16, align 8
  %59 = load i32, ptr %12, align 4
  %60 = load ptr, ptr %8, align 8
  %61 = load ptr, ptr %14, align 8
  %62 = load i32, ptr %61, align 4
  %63 = call ptr @proto_tree_add_item(ptr noundef %58, i32 noundef %59, ptr noundef %60, i32 noundef %62, i32 noundef 1, i32 noundef 0)
  %64 = load ptr, ptr %14, align 8
  %65 = load i32, ptr %64, align 4
  %66 = add i32 %65, 1
  store i32 %66, ptr %64, align 4
  br label %67

67:                                               ; preds = %51, %7
  %68 = load ptr, ptr %15, align 8
  %69 = load ptr, ptr %8, align 8
  %70 = load ptr, ptr %14, align 8
  %71 = load i32, ptr %70, align 4
  call void @proto_item_set_end(ptr noundef %68, ptr noundef %69, i32 noundef %71)
  %72 = load ptr, ptr %15, align 8
  ret ptr %72
}