; Function Attrs: nounwind uwtable
define internal fastcc noundef ptr @dissect_me_phr_ph(ptr noundef %0, ptr noundef %1, i32 noundef %2, i32 noundef %3, ptr noundef nonnull %4, ptr noundef nonnull captures(none) %5) unnamed_addr #0 {
  %7 = alloca i32, align 4
  %8 = load i32, ptr @hf_mac_nr_control_me_phr_entry, align 4
  %9 = load i32, ptr %5, align 4
  %10 = tail call ptr @proto_tree_add_item(ptr noundef %1, i32 noundef %8, ptr noundef %0, i32 noundef %9, i32 noundef 0, i32 noundef 0) #12
  %11 = load i32, ptr @ett_mac_nr_me_phr_entry, align 4
  %12 = tail call ptr @proto_item_add_subtree(ptr noundef %10, i32 noundef %11) #12
  %13 = load i32, ptr @hf_mac_nr_control_me_phr_p, align 4
  %14 = load i32, ptr %5, align 4
  %15 = tail call ptr @proto_tree_add_item(ptr noundef %12, i32 noundef %13, ptr noundef %0, i32 noundef %14, i32 noundef 1, i32 noundef 0) #12
  %16 = load i32, ptr @hf_mac_nr_control_me_phr_v, align 4
  %17 = load i32, ptr %5, align 4
  %18 = call ptr @proto_tree_add_item_ret_boolean(ptr noundef %12, i32 noundef %16, ptr noundef %0, i32 noundef %17, i32 noundef 1, i32 noundef 0, ptr noundef nonnull %7) #12
  %19 = load i32, ptr %5, align 4
  %20 = call ptr @proto_tree_add_item_ret_uint(ptr noundef %12, i32 noundef %2, ptr noundef %0, i32 noundef %19, i32 noundef 1, i32 noundef 0, ptr noundef nonnull %4) #12
  %21 = load i32, ptr %5, align 4
  %22 = add i32 %21, 1
  store i32 %22, ptr %5, align 4
  %23 = load i32, ptr %7, align 4
  %.not = icmp eq i32 %23, 0
  br i1 %.not, label %24, label %31

24:                                               ; preds = %6
  %25 = load i32, ptr @hf_mac_nr_control_me_phr_reserved_2, align 4
  %26 = call ptr @proto_tree_add_item(ptr noundef %12, i32 noundef %25, ptr noundef %0, i32 noundef %22, i32 noundef 1, i32 noundef 0) #12
  %27 = load i32, ptr %5, align 4
  %28 = call ptr @proto_tree_add_item(ptr noundef %12, i32 noundef %3, ptr noundef %0, i32 noundef %27, i32 noundef 1, i32 noundef 0) #12
  %29 = load i32, ptr %5, align 4
  %30 = add i32 %29, 1
  store i32 %30, ptr %5, align 4
  br label %31

31:                                               ; preds = %24, %6
  %32 = phi i32 [ %30, %24 ], [ %22, %6 ]
  call void @proto_item_set_end(ptr noundef %10, ptr noundef %0, i32 noundef %32) #12
  ret ptr %10
}